; Function Attrs: mustprogress uwtable
define dso_local noundef ptr @_ZNK5State10LookupNodeE11StringPiece(ptr noundef nonnull align 8 dereferenceable(264) %0, ptr %1, i64 %2) local_unnamed_addr #1 align 2 {
  %4 = alloca %struct.StringPiece, align 8
  store ptr %1, ptr %4, align 8
  %5 = getelementptr inbounds i8, ptr %4, i64 8
  store i64 %2, ptr %5, align 8
  %6 = call ptr @_ZNKSt10_HashtableI11StringPieceSt4pairIKS0_P4NodeESaIS5_ENSt8__detail10_Select1stESt8equal_toIS0_ESt4hashIS0_ENS7_18_Mod_range_hashingENS7_20_Default_ranged_hashENS7_20_Prime_rehash_policyENS7_17_Hashtable_traitsILb1ELb0ELb1EEEE4findERS2_(ptr noundef nonnull align 8 dereferenceable(56) %0, ptr noundef nonnull align 8 dereferenceable(16) %4)
  %.not = icmp eq ptr %6, null
  br i1 %.not, label %10, label %7

7:                                                ; preds = %3
  %8 = getelementptr inbounds i8, ptr %6, i64 24
  %9 = load ptr, ptr %8, align 8
  br label %10

10:                                               ; preds = %3, %7
  %.0 = phi ptr [ %9, %7 ], [ null, %3 ]
  ret ptr %.0
}